target datalayout = "e-m:e-p270:32:32-p271:32:32-p272:64:64-i64:64-i128:128-f80:128-n8:16:32:64-S128"
target triple = "x86_64-pc-linux-gnu"

%struct._object = type { %union.anon, ptr }
%union.anon = type { i64 }
%struct.elementtreestate = type { ptr, ptr, ptr, ptr, ptr, ptr, ptr, ptr, ptr, ptr, ptr, ptr, ptr, ptr, ptr, ptr, ptr, ptr, ptr }
%struct.anon = type { i32, i32 }
%struct.XMLParserObject = type { %struct._object, ptr, ptr, ptr, ptr, ptr, ptr, ptr, ptr, ptr, ptr, ptr, ptr, ptr, ptr, ptr }

@.str.133 = private unnamed_addr constant [7 x i8] c"strict\00", align 1

; Function Attrs: inlinehint nounwind uwtable
define internal ptr @_Py_TYPE(ptr noundef %0) #3 {
  %2 = alloca ptr, align 8
  store ptr %0, ptr %2, align 8, !tbaa !3
  %3 = load ptr, ptr %2, align 8, !tbaa !3
  %4 = getelementptr inbounds nuw %struct._object, ptr %3, i32 0, i32 1
  %5 = load ptr, ptr %4, align 8, !tbaa !52
  ret ptr %5
}

; Function Attrs: alwaysinline nounwind uwtable
define internal i32 @_Py_IsImmortal(ptr noundef %0) #4 {
  %2 = alloca ptr, align 8
  store ptr %0, ptr %2, align 8, !tbaa !3
  %3 = load ptr, ptr %2, align 8, !tbaa !3
  %4 = getelementptr inbounds nuw %struct._object, ptr %3, i32 0, i32 0
  %5 = getelementptr inbounds nuw %struct.anon, ptr %4, i32 0, i32 0
  %6 = load i32, ptr %5, align 8, !tbaa !32
  %7 = icmp slt i32 %6, 0
  %8 = zext i1 %7 to i32
  ret i32 %8
}

; Function Attrs: inlinehint nounwind uwtable
define internal void @Py_XDECREF(ptr noundef %0) #3 {
  %2 = alloca ptr, align 8
  store ptr %0, ptr %2, align 8, !tbaa !3
  %3 = load ptr, ptr %2, align 8, !tbaa !3
  %4 = icmp ne ptr %3, null
  br i1 %4, label %5, label %7

5:                                                ; preds = %1
  %6 = load ptr, ptr %2, align 8, !tbaa !3
  call void @Py_DECREF(ptr noundef %6)
  br label %7

7:                                                ; preds = %5, %1
  ret void
}

; Function Attrs: inlinehint nounwind uwtable
define internal i32 @Py_IS_TYPE(ptr noundef %0, ptr noundef %1) #3 {
  %3 = alloca ptr, align 8
  %4 = alloca ptr, align 8
  store ptr %0, ptr %3, align 8, !tbaa !3
  store ptr %1, ptr %4, align 8, !tbaa !28
  %5 = load ptr, ptr %3, align 8, !tbaa !3
  %6 = call ptr @_Py_TYPE(ptr noundef %5)
  %7 = load ptr, ptr %4, align 8, !tbaa !28
  %8 = icmp eq ptr %6, %7
  %9 = zext i1 %8 to i32
  ret i32 %9
}

; Function Attrs: alwaysinline nounwind uwtable
define internal void @Py_DECREF(ptr noundef %0) #4 {
  %2 = alloca ptr, align 8
  store ptr %0, ptr %2, align 8, !tbaa !3
  %3 = load ptr, ptr %2, align 8, !tbaa !3
  %4 = call i32 @_Py_IsImmortal(ptr noundef %3)
  %5 = icmp ne i32 %4, 0
  br i1 %5, label %6, label %7

6:                                                ; preds = %1
  br label %16

7:                                                ; preds = %1
  %8 = load ptr, ptr %2, align 8, !tbaa !3
  %9 = getelementptr inbounds nuw %struct._object, ptr %8, i32 0, i32 0
  %10 = getelementptr inbounds nuw %struct.anon, ptr %9, i32 0, i32 0
  %11 = load i32, ptr %10, align 8, !tbaa !32
  %12 = add i32 %11, -1
  store i32 %12, ptr %10, align 8, !tbaa !32
  %13 = icmp eq i32 %12, 0
  br i1 %13, label %14, label %16

14:                                               ; preds = %7
  %15 = load ptr, ptr %2, align 8, !tbaa !3
  call void @_Py_Dealloc(ptr noundef %15)
  br label %16

16:                                               ; preds = %6, %14, %7
  ret void
}

; Function Attrs: nounwind uwtable
define internal void @expat_start_handler(ptr noundef %0, ptr noundef %1, ptr noundef %2) #0 {
  %4 = alloca ptr, align 8
  %5 = alloca ptr, align 8
  %6 = alloca ptr, align 8
  %7 = alloca ptr, align 8
  %8 = alloca ptr, align 8
  %9 = alloca ptr, align 8
  %10 = alloca i32, align 4
  %11 = alloca i32, align 4
  %12 = alloca ptr, align 8
  %13 = alloca ptr, align 8
  %14 = alloca ptr, align 8
  store ptr %0, ptr %4, align 8, !tbaa !8
  store ptr %1, ptr %5, align 8, !tbaa !139
  store ptr %2, ptr %6, align 8, !tbaa !200
  call void @llvm.lifetime.start.p0(i64 8, ptr %7) #8
  call void @llvm.lifetime.start.p0(i64 8, ptr %8) #8
  call void @llvm.lifetime.start.p0(i64 8, ptr %9) #8
  call void @llvm.lifetime.start.p0(i64 4, ptr %10) #8
  %15 = call ptr @PyErr_Occurred()
  %16 = icmp ne ptr %15, null
  br i1 %16, label %17, label %18

17:                                               ; preds = %3
  store i32 1, ptr %11, align 4
  br label %144

18:                                               ; preds = %3
  %19 = load ptr, ptr %4, align 8, !tbaa !8
  %20 = load ptr, ptr %5, align 8, !tbaa !139
  %21 = call ptr @makeuniversal(ptr noundef %19, ptr noundef %20)
  store ptr %21, ptr %8, align 8, !tbaa !3
  %22 = load ptr, ptr %8, align 8, !tbaa !3
  %23 = icmp ne ptr %22, null
  br i1 %23, label %25, label %24

24:                                               ; preds = %18
  store i32 1, ptr %11, align 4
  br label %144

25:                                               ; preds = %18
  %26 = load ptr, ptr %6, align 8, !tbaa !200
  %27 = getelementptr ptr, ptr %26, i64 0
  %28 = load ptr, ptr %27, align 8, !tbaa !139
  %29 = icmp ne ptr %28, null
  br i1 %29, label %30, label %95

30:                                               ; preds = %25
  %31 = call ptr @PyDict_New()
  store ptr %31, ptr %9, align 8, !tbaa !3
  %32 = load ptr, ptr %9, align 8, !tbaa !3
  %33 = icmp ne ptr %32, null
  br i1 %33, label %36, label %34

34:                                               ; preds = %30
  %35 = load ptr, ptr %8, align 8, !tbaa !3
  call void @Py_DECREF(ptr noundef %35)
  store i32 1, ptr %11, align 4
  br label %144

36:                                               ; preds = %30
  br label %37

37:                                               ; preds = %93, %36
  %38 = load ptr, ptr %6, align 8, !tbaa !200
  %39 = getelementptr ptr, ptr %38, i64 0
  %40 = load ptr, ptr %39, align 8, !tbaa !139
  %41 = icmp ne ptr %40, null
  br i1 %41, label %42, label %47

42:                                               ; preds = %37
  %43 = load ptr, ptr %6, align 8, !tbaa !200
  %44 = getelementptr ptr, ptr %43, i64 1
  %45 = load ptr, ptr %44, align 8, !tbaa !139
  %46 = icmp ne ptr %45, null
  br label %47

47:                                               ; preds = %42, %37
  %48 = phi i1 [ false, %37 ], [ %46, %42 ]
  br i1 %48, label %49, label %94

49:                                               ; preds = %47
  call void @llvm.lifetime.start.p0(i64 8, ptr %12) #8
  %50 = load ptr, ptr %4, align 8, !tbaa !8
  %51 = load ptr, ptr %6, align 8, !tbaa !200
  %52 = getelementptr ptr, ptr %51, i64 0
  %53 = load ptr, ptr %52, align 8, !tbaa !139
  %54 = call ptr @makeuniversal(ptr noundef %50, ptr noundef %53)
  store ptr %54, ptr %12, align 8, !tbaa !3
  %55 = load ptr, ptr %12, align 8, !tbaa !3
  %56 = icmp eq ptr %55, null
  br i1 %56, label %57, label %60

57:                                               ; preds = %49
  %58 = load ptr, ptr %9, align 8, !tbaa !3
  call void @Py_DECREF(ptr noundef %58)
  %59 = load ptr, ptr %8, align 8, !tbaa !3
  call void @Py_DECREF(ptr noundef %59)
  store i32 1, ptr %11, align 4
  br label %91

60:                                               ; preds = %49
  call void @llvm.lifetime.start.p0(i64 8, ptr %13) #8
  %61 = load ptr, ptr %6, align 8, !tbaa !200
  %62 = getelementptr ptr, ptr %61, i64 1
  %63 = load ptr, ptr %62, align 8, !tbaa !139
  %64 = load ptr, ptr %6, align 8, !tbaa !200
  %65 = getelementptr ptr, ptr %64, i64 1
  %66 = load ptr, ptr %65, align 8, !tbaa !139
  %67 = call i64 @strlen(ptr noundef %66) #9
  %68 = call ptr @PyUnicode_DecodeUTF8(ptr noundef %63, i64 noundef %67, ptr noundef @.str.133)
  store ptr %68, ptr %13, align 8, !tbaa !3
  %69 = load ptr, ptr %13, align 8, !tbaa !3
  %70 = icmp eq ptr %69, null
  br i1 %70, label %71, label %75

71:                                               ; preds = %60
  %72 = load ptr, ptr %12, align 8, !tbaa !3
  call void @Py_DECREF(ptr noundef %72)
  %73 = load ptr, ptr %9, align 8, !tbaa !3
  call void @Py_DECREF(ptr noundef %73)
  %74 = load ptr, ptr %8, align 8, !tbaa !3
  call void @Py_DECREF(ptr noundef %74)
  store i32 1, ptr %11, align 4
  br label %90

75:                                               ; preds = %60
  %76 = load ptr, ptr %9, align 8, !tbaa !3
  %77 = load ptr, ptr %12, align 8, !tbaa !3
  %78 = load ptr, ptr %13, align 8, !tbaa !3
  %79 = call i32 @PyDict_SetItem(ptr noundef %76, ptr noundef %77, ptr noundef %78)
  store i32 %79, ptr %10, align 4, !tbaa !13
  %80 = load ptr, ptr %13, align 8, !tbaa !3
  call void @Py_DECREF(ptr noundef %80)
  %81 = load ptr, ptr %12, align 8, !tbaa !3
  call void @Py_DECREF(ptr noundef %81)
  %82 = load i32, ptr %10, align 4, !tbaa !13
  %83 = icmp slt i32 %82, 0
  br i1 %83, label %84, label %87

84:                                               ; preds = %75
  %85 = load ptr, ptr %9, align 8, !tbaa !3
  call void @Py_DECREF(ptr noundef %85)
  %86 = load ptr, ptr %8, align 8, !tbaa !3
  call void @Py_DECREF(ptr noundef %86)
  store i32 1, ptr %11, align 4
  br label %90

87:                                               ; preds = %75
  %88 = load ptr, ptr %6, align 8, !tbaa !200
  %89 = getelementptr ptr, ptr %88, i64 2
  store ptr %89, ptr %6, align 8, !tbaa !200
  store i32 0, ptr %11, align 4
  br label %90

90:                                               ; preds = %87, %84, %71
  call void @llvm.lifetime.end.p0(i64 8, ptr %13) #8
  br label %91

91:                                               ; preds = %90, %57
  call void @llvm.lifetime.end.p0(i64 8, ptr %12) #8
  %92 = load i32, ptr %11, align 4
  switch i32 %92, label %144 [
    i32 0, label %93
  ]

93:                                               ; preds = %91
  br label %37, !llvm.loop !202

94:                                               ; preds = %47
  br label %96

95:                                               ; preds = %25
  store ptr null, ptr %9, align 8, !tbaa !3
  br label %96

96:                                               ; preds = %95, %94
  call void @llvm.lifetime.start.p0(i64 8, ptr %14) #8
  %97 = load ptr, ptr %4, align 8, !tbaa !8
  %98 = getelementptr inbounds nuw %struct.XMLParserObject, ptr %97, i32 0, i32 14
  %99 = load ptr, ptr %98, align 8, !tbaa !171
  store ptr %99, ptr %14, align 8, !tbaa !8
  %100 = load ptr, ptr %4, align 8, !tbaa !8
  %101 = getelementptr inbounds nuw %struct.XMLParserObject, ptr %100, i32 0, i32 2
  %102 = load ptr, ptr %101, align 8, !tbaa !168
  %103 = load ptr, ptr %14, align 8, !tbaa !8
  %104 = getelementptr inbounds nuw %struct.elementtreestate, ptr %103, i32 0, i32 15
  %105 = load ptr, ptr %104, align 8, !tbaa !21
  %106 = call i32 @Py_IS_TYPE(ptr noundef %102, ptr noundef %105)
  %107 = icmp ne i32 %106, 0
  br i1 %107, label %108, label %115

108:                                              ; preds = %96
  %109 = load ptr, ptr %4, align 8, !tbaa !8
  %110 = getelementptr inbounds nuw %struct.XMLParserObject, ptr %109, i32 0, i32 2
  %111 = load ptr, ptr %110, align 8, !tbaa !168
  %112 = load ptr, ptr %8, align 8, !tbaa !3
  %113 = load ptr, ptr %9, align 8, !tbaa !3
  %114 = call ptr @treebuilder_handle_start(ptr noundef %111, ptr noundef %112, ptr noundef %113)
  store ptr %114, ptr %7, align 8, !tbaa !3
  br label %139

115:                                              ; preds = %96
  %116 = load ptr, ptr %4, align 8, !tbaa !8
  %117 = getelementptr inbounds nuw %struct.XMLParserObject, ptr %116, i32 0, i32 7
  %118 = load ptr, ptr %117, align 8, !tbaa !164
  %119 = icmp ne ptr %118, null
  br i1 %119, label %120, label %137

120:                                              ; preds = %115
  %121 = load ptr, ptr %9, align 8, !tbaa !3
  %122 = icmp eq ptr %121, null
  br i1 %122, label %123, label %130

123:                                              ; preds = %120
  %124 = call ptr @PyDict_New()
  store ptr %124, ptr %9, align 8, !tbaa !3
  %125 = load ptr, ptr %9, align 8, !tbaa !3
  %126 = icmp ne ptr %125, null
  br i1 %126, label %129, label %127

127:                                              ; preds = %123
  %128 = load ptr, ptr %8, align 8, !tbaa !3
  call void @Py_DECREF(ptr noundef %128)
  store i32 1, ptr %11, align 4
  br label %143

129:                                              ; preds = %123
  br label %130

130:                                              ; preds = %129, %120
  %131 = load ptr, ptr %4, align 8, !tbaa !8
  %132 = getelementptr inbounds nuw %struct.XMLParserObject, ptr %131, i32 0, i32 7
  %133 = load ptr, ptr %132, align 8, !tbaa !164
  %134 = load ptr, ptr %8, align 8, !tbaa !3
  %135 = load ptr, ptr %9, align 8, !tbaa !3
  %136 = call ptr (ptr, ...) @PyObject_CallFunctionObjArgs(ptr noundef %133, ptr noundef %134, ptr noundef %135, ptr noundef null)
  store ptr %136, ptr %7, align 8, !tbaa !3
  br label %138

137:                                              ; preds = %115
  store ptr null, ptr %7, align 8, !tbaa !3
  br label %138

138:                                              ; preds = %137, %130
  br label %139

139:                                              ; preds = %138, %108
  %140 = load ptr, ptr %8, align 8, !tbaa !3
  call void @Py_DECREF(ptr noundef %140)
  %141 = load ptr, ptr %9, align 8, !tbaa !3
  call void @Py_XDECREF(ptr noundef %141)
  %142 = load ptr, ptr %7, align 8, !tbaa !3
  call void @Py_XDECREF(ptr noundef %142)
  store i32 0, ptr %11, align 4
  br label %143

143:                                              ; preds = %139, %127
  call void @llvm.lifetime.end.p0(i64 8, ptr %14) #8
  br label %144

144:                                              ; preds = %143, %91, %34, %24, %17
  call void @llvm.lifetime.end.p0(i64 4, ptr %10) #8
  call void @llvm.lifetime.end.p0(i64 8, ptr %9) #8
  call void @llvm.lifetime.end.p0(i64 8, ptr %8) #8
  call void @llvm.lifetime.end.p0(i64 8, ptr %7) #8
  %145 = load i32, ptr %11, align 4
  switch i32 %145, label %147 [
    i32 0, label %146
    i32 1, label %146
  ]

146:                                              ; preds = %144, %144
  ret void

147:                                              ; preds = %144
  unreachable
}