; Function Attrs: nounwind uwtable
define internal void @expat_start_handler(ptr noundef readonly captures(none) %0, ptr noundef %1, ptr noundef readonly captures(none) %2) #0 {
  %4 = tail call ptr @PyErr_Occurred() #12
  %.not = icmp eq ptr %4, null
  br i1 %.not, label %5, label %Py_DECREF.exit84

5:                                                ; preds = %3
  %6 = tail call fastcc ptr @makeuniversal(ptr noundef %0, ptr noundef %1)
  %.not55 = icmp eq ptr %6, null
  br i1 %.not55, label %Py_DECREF.exit84, label %7

7:                                                ; preds = %5
  %8 = load ptr, ptr %2, align 8, !tbaa !193
  %.not56 = icmp eq ptr %8, null
  br i1 %.not56, label %.critedge, label %9

9:                                                ; preds = %7
  %10 = tail call ptr @PyDict_New() #12
  %.not57 = icmp eq ptr %10, null
  br i1 %.not57, label %12, label %.preheader

.preheader:                                       ; preds = %9
  %11 = load ptr, ptr %2, align 8, !tbaa !193
  %.not58105 = icmp eq ptr %11, null
  br i1 %.not58105, label %.critedge, label %.lr.ph

12:                                               ; preds = %9
  %13 = load i32, ptr %6, align 8, !tbaa !21
  %.not.i83 = icmp sgt i32 %13, -1
  br i1 %.not.i83, label %14, label %Py_DECREF.exit84

14:                                               ; preds = %12
  %15 = add nsw i32 %13, -1
  store i32 %15, ptr %6, align 8, !tbaa !21
  %16 = icmp eq i32 %15, 0
  br i1 %16, label %Py_DECREF.exit84.sink.split, label %Py_DECREF.exit84

17:                                               ; preds = %Py_DECREF.exit70
  %18 = getelementptr i8, ptr %.0106, i64 16
  %19 = load ptr, ptr %18, align 8, !tbaa !193
  %.not58 = icmp eq ptr %19, null
  br i1 %.not58, label %.critedge, label %.lr.ph, !llvm.loop !194

.lr.ph:                                           ; preds = %.preheader, %17
  %20 = phi ptr [ %19, %17 ], [ %11, %.preheader ]
  %.0106 = phi ptr [ %18, %17 ], [ %2, %.preheader ]
  %21 = getelementptr i8, ptr %.0106, i64 8
  %22 = load ptr, ptr %21, align 8, !tbaa !193
  %.not59 = icmp eq ptr %22, null
  br i1 %.not59, label %.critedge, label %23

23:                                               ; preds = %.lr.ph
  %24 = tail call fastcc ptr @makeuniversal(ptr noundef %0, ptr noundef nonnull %20)
  %25 = icmp eq ptr %24, null
  br i1 %25, label %26, label %36

26:                                               ; preds = %23
  %27 = load i32, ptr %10, align 8, !tbaa !21
  %.not.i81 = icmp sgt i32 %27, -1
  br i1 %.not.i81, label %28, label %Py_DECREF.exit82

28:                                               ; preds = %26
  %29 = add nsw i32 %27, -1
  store i32 %29, ptr %10, align 8, !tbaa !21
  %30 = icmp eq i32 %29, 0
  br i1 %30, label %31, label %Py_DECREF.exit82

31:                                               ; preds = %28
  tail call void @_Py_Dealloc(ptr noundef nonnull %10) #12
  br label %Py_DECREF.exit82

Py_DECREF.exit82:                                 ; preds = %26, %28, %31
  %32 = load i32, ptr %6, align 8, !tbaa !21
  %.not.i79 = icmp sgt i32 %32, -1
  br i1 %.not.i79, label %33, label %Py_DECREF.exit84

33:                                               ; preds = %Py_DECREF.exit82
  %34 = add nsw i32 %32, -1
  store i32 %34, ptr %6, align 8, !tbaa !21
  %35 = icmp eq i32 %34, 0
  br i1 %35, label %Py_DECREF.exit84.sink.split, label %Py_DECREF.exit84

36:                                               ; preds = %23
  %37 = load ptr, ptr %21, align 8, !tbaa !193
  %38 = tail call i64 @strlen(ptr noundef nonnull dereferenceable(1) %37) #13
  %39 = tail call ptr @PyUnicode_DecodeUTF8(ptr noundef nonnull %37, i64 noundef %38, ptr noundef nonnull @.str.133) #12
  %40 = icmp eq ptr %39, null
  br i1 %40, label %41, label %56

41:                                               ; preds = %36
  %42 = load i32, ptr %24, align 8, !tbaa !21
  %.not.i77 = icmp sgt i32 %42, -1
  br i1 %.not.i77, label %43, label %Py_DECREF.exit78

43:                                               ; preds = %41
  %44 = add nsw i32 %42, -1
  store i32 %44, ptr %24, align 8, !tbaa !21
  %45 = icmp eq i32 %44, 0
  br i1 %45, label %46, label %Py_DECREF.exit78

46:                                               ; preds = %43
  tail call void @_Py_Dealloc(ptr noundef nonnull %24) #12
  br label %Py_DECREF.exit78

Py_DECREF.exit78:                                 ; preds = %41, %43, %46
  %47 = load i32, ptr %10, align 8, !tbaa !21
  %.not.i75 = icmp sgt i32 %47, -1
  br i1 %.not.i75, label %48, label %Py_DECREF.exit76

48:                                               ; preds = %Py_DECREF.exit78
  %49 = add nsw i32 %47, -1
  store i32 %49, ptr %10, align 8, !tbaa !21
  %50 = icmp eq i32 %49, 0
  br i1 %50, label %51, label %Py_DECREF.exit76

51:                                               ; preds = %48
  tail call void @_Py_Dealloc(ptr noundef nonnull %10) #12
  br label %Py_DECREF.exit76

Py_DECREF.exit76:                                 ; preds = %Py_DECREF.exit78, %48, %51
  %52 = load i32, ptr %6, align 8, !tbaa !21
  %.not.i73 = icmp sgt i32 %52, -1
  br i1 %.not.i73, label %53, label %Py_DECREF.exit84

53:                                               ; preds = %Py_DECREF.exit76
  %54 = add nsw i32 %52, -1
  store i32 %54, ptr %6, align 8, !tbaa !21
  %55 = icmp eq i32 %54, 0
  br i1 %55, label %Py_DECREF.exit84.sink.split, label %Py_DECREF.exit84

56:                                               ; preds = %36
  %57 = tail call i32 @PyDict_SetItem(ptr noundef nonnull %10, ptr noundef nonnull %24, ptr noundef nonnull %39) #12
  %58 = load i32, ptr %39, align 8, !tbaa !21
  %.not.i71 = icmp sgt i32 %58, -1
  br i1 %.not.i71, label %59, label %Py_DECREF.exit72

59:                                               ; preds = %56
  %60 = add nsw i32 %58, -1
  store i32 %60, ptr %39, align 8, !tbaa !21
  %61 = icmp eq i32 %60, 0
  br i1 %61, label %62, label %Py_DECREF.exit72

62:                                               ; preds = %59
  tail call void @_Py_Dealloc(ptr noundef nonnull %39) #12
  br label %Py_DECREF.exit72

Py_DECREF.exit72:                                 ; preds = %56, %59, %62
  %63 = load i32, ptr %24, align 8, !tbaa !21
  %.not.i69 = icmp sgt i32 %63, -1
  br i1 %.not.i69, label %64, label %Py_DECREF.exit70

64:                                               ; preds = %Py_DECREF.exit72
  %65 = add nsw i32 %63, -1
  store i32 %65, ptr %24, align 8, !tbaa !21
  %66 = icmp eq i32 %65, 0
  br i1 %66, label %67, label %Py_DECREF.exit70

67:                                               ; preds = %64
  tail call void @_Py_Dealloc(ptr noundef nonnull %24) #12
  br label %Py_DECREF.exit70

Py_DECREF.exit70:                                 ; preds = %Py_DECREF.exit72, %64, %67
  %68 = icmp slt i32 %57, 0
  br i1 %68, label %69, label %17

69:                                               ; preds = %Py_DECREF.exit70
  %70 = load i32, ptr %10, align 8, !tbaa !21
  %.not.i67 = icmp sgt i32 %70, -1
  br i1 %.not.i67, label %71, label %Py_DECREF.exit68

71:                                               ; preds = %69
  %72 = add nsw i32 %70, -1
  store i32 %72, ptr %10, align 8, !tbaa !21
  %73 = icmp eq i32 %72, 0
  br i1 %73, label %74, label %Py_DECREF.exit68

74:                                               ; preds = %71
  tail call void @_Py_Dealloc(ptr noundef nonnull %10) #12
  br label %Py_DECREF.exit68

Py_DECREF.exit68:                                 ; preds = %69, %71, %74
  %75 = load i32, ptr %6, align 8, !tbaa !21
  %.not.i65 = icmp sgt i32 %75, -1
  br i1 %.not.i65, label %76, label %Py_DECREF.exit84

76:                                               ; preds = %Py_DECREF.exit68
  %77 = add nsw i32 %75, -1
  store i32 %77, ptr %6, align 8, !tbaa !21
  %78 = icmp eq i32 %77, 0
  br i1 %78, label %Py_DECREF.exit84.sink.split, label %Py_DECREF.exit84

.critedge:                                        ; preds = %17, %.lr.ph, %.preheader, %7
  %.045 = phi ptr [ null, %7 ], [ %10, %.preheader ], [ %10, %.lr.ph ], [ %10, %17 ]
  %79 = getelementptr inbounds nuw i8, ptr %0, i64 120
  %80 = load ptr, ptr %79, align 8, !tbaa !166
  %81 = getelementptr inbounds nuw i8, ptr %0, i64 24
  %82 = load ptr, ptr %81, align 8, !tbaa !162
  %83 = getelementptr inbounds nuw i8, ptr %80, i64 120
  %84 = load ptr, ptr %83, align 8, !tbaa !17
  %85 = getelementptr i8, ptr %82, i64 8
  %.val = load ptr, ptr %85, align 8, !tbaa !25
  %.not102 = icmp eq ptr %.val, %84
  br i1 %.not102, label %86, label %88

86:                                               ; preds = %.critedge
  %87 = tail call fastcc ptr @treebuilder_handle_start(ptr noundef nonnull %82, ptr noundef nonnull %6, ptr noundef %.045)
  br label %103

88:                                               ; preds = %.critedge
  %89 = getelementptr inbounds nuw i8, ptr %0, i64 64
  %90 = load ptr, ptr %89, align 8, !tbaa !158
  %.not61 = icmp eq ptr %90, null
  br i1 %.not61, label %103, label %91

91:                                               ; preds = %88
  %92 = icmp eq ptr %.045, null
  br i1 %92, label %93, label %100

93:                                               ; preds = %91
  %94 = tail call ptr @PyDict_New() #12
  %.not62 = icmp eq ptr %94, null
  br i1 %.not62, label %95, label %._crit_edge

._crit_edge:                                      ; preds = %93
  %.pre = load ptr, ptr %89, align 8, !tbaa !158
  br label %100

95:                                               ; preds = %93
  %96 = load i32, ptr %6, align 8, !tbaa !21
  %.not.i63 = icmp sgt i32 %96, -1
  br i1 %.not.i63, label %97, label %Py_DECREF.exit84

97:                                               ; preds = %95
  %98 = add nsw i32 %96, -1
  store i32 %98, ptr %6, align 8, !tbaa !21
  %99 = icmp eq i32 %98, 0
  br i1 %99, label %Py_DECREF.exit84.sink.split, label %Py_DECREF.exit84

100:                                              ; preds = %._crit_edge, %91
  %101 = phi ptr [ %.pre, %._crit_edge ], [ %90, %91 ]
  %.247 = phi ptr [ %94, %._crit_edge ], [ %.045, %91 ]
  %102 = tail call ptr (ptr, ...) @PyObject_CallFunctionObjArgs(ptr noundef %101, ptr noundef nonnull %6, ptr noundef nonnull %.247, ptr noundef null) #12
  br label %103

103:                                              ; preds = %88, %100, %86
  %.146 = phi ptr [ %.045, %86 ], [ %.247, %100 ], [ %.045, %88 ]
  %.044 = phi ptr [ %87, %86 ], [ %102, %100 ], [ null, %88 ]
  %104 = load i32, ptr %6, align 8, !tbaa !21
  %.not.i = icmp sgt i32 %104, -1
  br i1 %.not.i, label %105, label %Py_DECREF.exit

105:                                              ; preds = %103
  %106 = add nsw i32 %104, -1
  store i32 %106, ptr %6, align 8, !tbaa !21
  %107 = icmp eq i32 %106, 0
  br i1 %107, label %108, label %Py_DECREF.exit

108:                                              ; preds = %105
  tail call void @_Py_Dealloc(ptr noundef nonnull %6) #12
  br label %Py_DECREF.exit

Py_DECREF.exit:                                   ; preds = %103, %105, %108
  %.not.i96 = icmp eq ptr %.146, null
  br i1 %.not.i96, label %Py_XDECREF.exit, label %109

109:                                              ; preds = %Py_DECREF.exit
  %110 = load i32, ptr %.146, align 8, !tbaa !21
  %.not.i.i = icmp sgt i32 %110, -1
  br i1 %.not.i.i, label %111, label %Py_XDECREF.exit

111:                                              ; preds = %109
  %112 = add nsw i32 %110, -1
  store i32 %112, ptr %.146, align 8, !tbaa !21
  %113 = icmp eq i32 %112, 0
  br i1 %113, label %114, label %Py_XDECREF.exit

114:                                              ; preds = %111
  tail call void @_Py_Dealloc(ptr noundef nonnull %.146) #12
  br label %Py_XDECREF.exit

Py_XDECREF.exit:                                  ; preds = %Py_DECREF.exit, %109, %111, %114
  %.not.i97 = icmp eq ptr %.044, null
  br i1 %.not.i97, label %Py_DECREF.exit84, label %115

115:                                              ; preds = %Py_XDECREF.exit
  %116 = load i32, ptr %.044, align 8, !tbaa !21
  %.not.i.i98 = icmp sgt i32 %116, -1
  br i1 %.not.i.i98, label %117, label %Py_DECREF.exit84

117:                                              ; preds = %115
  %118 = add nsw i32 %116, -1
  store i32 %118, ptr %.044, align 8, !tbaa !21
  %119 = icmp eq i32 %118, 0
  br i1 %119, label %Py_DECREF.exit84.sink.split, label %Py_DECREF.exit84

Py_DECREF.exit84.sink.split:                      ; preds = %117, %97, %76, %53, %33, %14
  %.sink = phi ptr [ %6, %14 ], [ %6, %33 ], [ %6, %53 ], [ %6, %76 ], [ %6, %97 ], [ %.044, %117 ]
  tail call void @_Py_Dealloc(ptr noundef nonnull %.sink) #12
  br label %Py_DECREF.exit84

Py_DECREF.exit84:                                 ; preds = %Py_DECREF.exit84.sink.split, %76, %Py_DECREF.exit68, %53, %Py_DECREF.exit76, %33, %Py_DECREF.exit82, %117, %115, %Py_XDECREF.exit, %97, %95, %14, %12, %5, %3
  ret void
}